(V3.13.5
p0
(lp1
(lp2
(dp3
Vfilename
p4
Vbench/bootstrap.css
p5
sVsizes
p6
(lp7
I121652
aI122030
aI122030
asVsize
p8
I145933
sVmessages
p9
(lp10
sVtimes
p11
(lp12
(Vcssmin
p13
F988.6226177215576
tp14
a(Vrcssmin
p15
F32.534003257751465
tp16
a(V_rcssmin
p17
F0.45840024948120117
tp18
asa(dp19
g4
Vbench/bootstrap.min.css
p20
sg6
(lp21
I121334
aI121407
aI121407
asg8
I121457
sg9
(lp22
sg11
(lp23
(g13
F899.004602432251
tp24
a(g15
F14.371585845947266
tp25
a(g17
F0.2807903289794922
tp26
asa(dp27
g4
Vbench/wikipedia.css
p28
sg6
(lp29
I50539
aI50801
aI50801
asg8
I82896
sg9
(lp30
sg11
(lp31
(g13
F56.917643547058105
tp32
a(g15
F14.106893539428711
tp33
a(g17
F0.25604963302612305
tp34
asa(dp35
g4
Vbench/wikipedia.min.css
p36
sg6
(lp37
I50539
aI50539
aI50539
asg8
I50539
sg9
(lp38
sg11
(lp39
(g13
F46.33822441101074
tp40
a(g15
F7.105445861816406
tp41
a(g17
F0.15541315078735352
tp42
asatp43
.