(V3.6.15
p0
(lp1
(lp2
(dp3
Vfilename
p4
Vbench/bootstrap.css
p5
sVsizes
p6
(lp7
L121652L
aL122030L
aL122030L
asVsize
p8
L145933L
sVmessages
p9
(lp10
sVtimes
p11
(lp12
(Vcssmin
p13
F1104.0767669677734
tp14
a(Vrcssmin
p15
F32.14082717895508
tp16
a(V_rcssmin
p17
F0.4380607604980469
tp18
asa(dp19
g4
Vbench/bootstrap.min.css
p20
sg6
(lp21
L121334L
aL121407L
aL121407L
asg8
L121457L
sg9
(lp22
sg11
(lp23
(g13
F989.8335695266724
tp24
a(g15
F15.316200256347656
tp25
a(g17
F0.29083251953125
tp26
asa(dp27
g4
Vbench/wikipedia.css
p28
sg6
(lp29
L50539L
aL50801L
aL50801L
asg8
L82896L
sg9
(lp30
sg11
(lp31
(g13
F67.84255504608154
tp32
a(g15
F14.888358116149902
tp33
a(g17
F0.2675509452819824
tp34
asa(dp35
g4
Vbench/wikipedia.min.css
p36
sg6
(lp37
L50539L
aL50539L
aL50539L
asg8
L50539L
sg9
(lp38
sg11
(lp39
(g13
F53.23128700256348
tp40
a(g15
F7.523655891418457
tp41
a(g17
F0.16457796096801758
tp42
asatp43
.