(V3.10.18
p0
(lp1
(lp2
(dp3
Vfilename
p4
Vbench/bootstrap.css
p5
sVsizes
p6
(lp7
I121652
aI122030
aI122030
asVsize
p8
I145933
sVmessages
p9
(lp10
sVtimes
p11
(lp12
(Vcssmin
p13
F1106.4174890518188
tp14
a(Vrcssmin
p15
F31.667733192443848
tp16
a(V_rcssmin
p17
F0.47200918197631836
tp18
asa(dp19
g4
Vbench/bootstrap.min.css
p20
sg6
(lp21
I121334
aI121407
aI121407
asg8
I121457
sg9
(lp22
sg11
(lp23
(g13
F997.6069211959839
tp24
a(g15
F15.146207809448242
tp25
a(g17
F0.3155803680419922
tp26
asa(dp27
g4
Vbench/wikipedia.css
p28
sg6
(lp29
I50539
aI50801
aI50801
asg8
I82896
sg9
(lp30
sg11
(lp31
(g13
F65.1923418045044
tp32
a(g15
F14.283323287963867
tp33
a(g17
F0.27956247329711914
tp34
asa(dp35
g4
Vbench/wikipedia.min.css
p36
sg6
(lp37
I50539
aI50539
aI50539
asg8
I50539
sg9
(lp38
sg11
(lp39
(g13
F51.224684715270996
tp40
a(g15
F7.389688491821289
tp41
a(g17
F0.16886472702026367
tp42
asatp43
.