(S'2.7.18'
p0
(lp1
(lp2
(dp3
S'times'
p4
(lp5
(S'cssmin'
p6
F1139.893388748169
tp7
a(S'rcssmin'
p8
F30.39391040802002
tp9
a(S'_rcssmin'
p10
F0.4791688919067383
tp11
asS'size'
p12
I145933
sS'sizes'
p13
(lp14
I121652
aI122030
aI122030
asS'messages'
p15
(lp16
sS'filename'
p17
S'bench/bootstrap.css'
p18
sa(dp19
g4
(lp20
(g6
F1024.8353004455566
tp21
a(g8
F13.70089054107666
tp22
a(g10
F0.3608107566833496
tp23
asg12
I121457
sg13
(lp24
I121334
aI121407
aI121407
asg15
(lp25
sg17
S'bench/bootstrap.min.css'
p26
sa(dp27
g4
(lp28
(g6
F66.33081436157227
tp29
a(g8
F13.361811637878418
tp30
a(g10
F0.23808956146240234
tp31
asg12
I82899
sg13
(lp32
I50540
aI50802
aI50802
asg15
(lp33
sg17
S'bench/wikipedia.css'
p34
sa(dp35
g4
(lp36
(g6
F53.53829860687256
tp37
a(g8
F6.624293327331543
tp38
a(g10
F0.1550889015197754
tp39
asg12
I50540
sg13
(lp40
I50540
aI50540
aI50540
asg15
(lp41
sg17
S'bench/wikipedia.min.css'
p42
satp43
.