(V3.7.13
p0
(lp1
(lp2
(dp3
Vfilename
p4
Vbench/bootstrap.css
p5
sVsizes
p6
(lp7
I121652
aI122030
aI122030
asVsize
p8
I145933
sVmessages
p9
(lp10
sVtimes
p11
(lp12
(Vcssmin
p13
F1157.6141357421875
tp14
a(Vrcssmin
p15
F30.463552474975586
tp16
a(V_rcssmin
p17
F0.4226851463317871
tp18
asa(dp19
g4
Vbench/bootstrap.min.css
p20
sg6
(lp21
I121334
aI121407
aI121407
asg8
I121457
sg9
(lp22
sg11
(lp23
(g13
F1039.6580219268799
tp24
a(g15
F14.167451858520508
tp25
a(g17
F0.26717424392700195
tp26
asa(dp27
g4
Vbench/wikipedia.css
p28
sg6
(lp29
I50539
aI50801
aI50801
asg8
I82896
sg9
(lp30
sg11
(lp31
(g13
F67.51384735107422
tp32
a(g15
F13.611793518066406
tp33
a(g17
F0.25618791580200195
tp34
asa(dp35
g4
Vbench/wikipedia.min.css
p36
sg6
(lp37
I50539
aI50539
aI50539
asg8
I50539
sg9
(lp38
sg11
(lp39
(g13
F53.614139556884766
tp40
a(g15
F7.309365272521973
tp41
a(g17
F0.18304109573364258
tp42
asatp43
.