(V3.9.23
p0
(lp1
(lp2
(dp3
Vfilename
p4
Vbench/bootstrap.css
p5
sVsizes
p6
(lp7
I121652
aI122030
aI122030
asVsize
p8
I145933
sVmessages
p9
(lp10
sVtimes
p11
(lp12
(Vcssmin
p13
F1104.4741868972778
tp14
a(Vrcssmin
p15
F29.650449752807617
tp16
a(V_rcssmin
p17
F0.4591560363769531
tp18
asa(dp19
g4
Vbench/bootstrap.min.css
p20
sg6
(lp21
I121334
aI121407
aI121407
asg8
I121457
sg9
(lp22
sg11
(lp23
(g13
F994.0892696380615
tp24
a(g15
F14.49575424194336
tp25
a(g17
F0.30913352966308594
tp26
asa(dp27
g4
Vbench/wikipedia.css
p28
sg6
(lp29
I50539
aI50801
aI50801
asg8
I82896
sg9
(lp30
sg11
(lp31
(g13
F64.7273302078247
tp32
a(g15
F13.174653053283691
tp33
a(g17
F0.271146297454834
tp34
asa(dp35
g4
Vbench/wikipedia.min.css
p36
sg6
(lp37
I50539
aI50539
aI50539
asg8
I50539
sg9
(lp38
sg11
(lp39
(g13
F51.24990940093994
tp40
a(g15
F6.821942329406738
tp41
a(g17
F0.16824007034301758
tp42
asatp43
.