(S'2.7.18'
p0
(lp1
(lp2
(dp3
S'times'
p4
(lp5
(S'cssmin'
p6
F1139.893388748169
tp7
a(S'rcssmin'
p8
F30.39391040802002
tp9
a(S'_rcssmin'
p10
F0.4791688919067383
tp11
asS'size'
p12
I145933
sS'sizes'
p13
(lp14
I121652
aI122030
aI122030
asS'messages'
p15
(lp16
sS'filename'
p17
S'bench/bootstrap.css'
p18
sa(dp19
g4
(lp20
(g6
F1024.8353004455566
tp21
a(g8
F13.70089054107666
tp22
a(g10
F0.3608107566833496
tp23
asg12
I121457
sg13
(lp24
I121334
aI121407
aI121407
asg15
(lp25
sg17
S'bench/bootstrap.min.css'
p26
sa(dp27
g4
(lp28
(g6
F66.33081436157227
tp29
a(g8
F13.361811637878418
tp30
a(g10
F0.23808956146240234
tp31
asg12
I82899
sg13
(lp32
I50540
aI50802
aI50802
asg15
(lp33
sg17
S'bench/wikipedia.css'
p34
sa(dp35
g4
(lp36
(g6
F53.53829860687256
tp37
a(g8
F6.624293327331543
tp38
a(g10
F0.1550889015197754
tp39
asg12
I50540
sg13
(lp40
I50540
aI50540
aI50540
asg15
(lp41
sg17
S'bench/wikipedia.min.css'
p42
satp43
.(V3.10.18
p0
(lp1
(lp2
(dp3
Vfilename
p4
Vbench/bootstrap.css
p5
sVsizes
p6
(lp7
I121652
aI122030
aI122030
asVsize
p8
I145933
sVmessages
p9
(lp10
sVtimes
p11
(lp12
(Vcssmin
p13
F1106.4174890518188
tp14
a(Vrcssmin
p15
F31.667733192443848
tp16
a(V_rcssmin
p17
F0.47200918197631836
tp18
asa(dp19
g4
Vbench/bootstrap.min.css
p20
sg6
(lp21
I121334
aI121407
aI121407
asg8
I121457
sg9
(lp22
sg11
(lp23
(g13
F997.6069211959839
tp24
a(g15
F15.146207809448242
tp25
a(g17
F0.3155803680419922
tp26
asa(dp27
g4
Vbench/wikipedia.css
p28
sg6
(lp29
I50539
aI50801
aI50801
asg8
I82896
sg9
(lp30
sg11
(lp31
(g13
F65.1923418045044
tp32
a(g15
F14.283323287963867
tp33
a(g17
F0.27956247329711914
tp34
asa(dp35
g4
Vbench/wikipedia.min.css
p36
sg6
(lp37
I50539
aI50539
aI50539
asg8
I50539
sg9
(lp38
sg11
(lp39
(g13
F51.224684715270996
tp40
a(g15
F7.389688491821289
tp41
a(g17
F0.16886472702026367
tp42
asatp43
.(V3.11.13
p0
(lp1
(lp2
(dp3
Vfilename
p4
Vbench/bootstrap.css
p5
sVsizes
p6
(lp7
I121652
aI122030
aI122030
asVsize
p8
I145933
sVmessages
p9
(lp10
sVtimes
p11
(lp12
(Vcssmin
p13
F1011.7101192474365
tp14
a(Vrcssmin
p15
F29.430246353149414
tp16
a(V_rcssmin
p17
F0.4639768600463867
tp18
asa(dp19
g4
Vbench/bootstrap.min.css
p20
sg6
(lp21
I121334
aI121407
aI121407
asg8
I121457
sg9
(lp22
sg11
(lp23
(g13
F901.7230749130249
tp24
a(g15
F13.683581352233887
tp25
a(g17
F0.30907630920410156
tp26
asa(dp27
g4
Vbench/wikipedia.css
p28
sg6
(lp29
I50539
aI50801
aI50801
asg8
I82896
sg9
(lp30
sg11
(lp31
(g13
F60.041046142578125
tp32
a(g15
F13.185811042785645
tp33
a(g17
F0.27250051498413086
tp34
asa(dp35
g4
Vbench/wikipedia.min.css
p36
sg6
(lp37
I50539
aI50539
aI50539
asg8
I50539
sg9
(lp38
sg11
(lp39
(g13
F46.99892997741699
tp40
a(g15
F6.782746315002441
tp41
a(g17
F0.16816377639770508
tp42
asatp43
.(V3.12.11
p0
(lp1
(lp2
(dp3
Vfilename
p4
Vbench/bootstrap.css
p5
sVsizes
p6
(lp7
I121652
aI122030
aI122030
asVsize
p8
I145933
sVmessages
p9
(lp10
sVtimes
p11
(lp12
(Vcssmin
p13
F990.7891035079956
tp14
a(Vrcssmin
p15
F31.433415412902832
tp16
a(V_rcssmin
p17
F0.42540788650512695
tp18
asa(dp19
g4
Vbench/bootstrap.min.css
p20
sg6
(lp21
I121334
aI121407
aI121407
asg8
I121457
sg9
(lp22
sg11
(lp23
(g13
F893.4133768081665
tp24
a(g15
F14.147663116455078
tp25
a(g17
F0.28029441833496094
tp26
asa(dp27
g4
Vbench/wikipedia.css
p28
sg6
(lp29
I50539
aI50801
aI50801
asg8
I82896
sg9
(lp30
sg11
(lp31
(g13
F57.098984718322754
tp32
a(g15
F13.90087604522705
tp33
a(g17
F0.25623083114624023
tp34
asa(dp35
g4
Vbench/wikipedia.min.css
p36
sg6
(lp37
I50539
aI50539
aI50539
asg8
I50539
sg9
(lp38
sg11
(lp39
(g13
F46.46117687225342
tp40
a(g15
F7.018804550170898
tp41
a(g17
F0.15503883361816406
tp42
asatp43
.(V3.13.5
p0
(lp1
(lp2
(dp3
Vfilename
p4
Vbench/bootstrap.css
p5
sVsizes
p6
(lp7
I121652
aI122030
aI122030
asVsize
p8
I145933
sVmessages
p9
(lp10
sVtimes
p11
(lp12
(Vcssmin
p13
F988.6226177215576
tp14
a(Vrcssmin
p15
F32.534003257751465
tp16
a(V_rcssmin
p17
F0.45840024948120117
tp18
asa(dp19
g4
Vbench/bootstrap.min.css
p20
sg6
(lp21
I121334
aI121407
aI121407
asg8
I121457
sg9
(lp22
sg11
(lp23
(g13
F899.004602432251
tp24
a(g15
F14.371585845947266
tp25
a(g17
F0.2807903289794922
tp26
asa(dp27
g4
Vbench/wikipedia.css
p28
sg6
(lp29
I50539
aI50801
aI50801
asg8
I82896
sg9
(lp30
sg11
(lp31
(g13
F56.917643547058105
tp32
a(g15
F14.106893539428711
tp33
a(g17
F0.25604963302612305
tp34
asa(dp35
g4
Vbench/wikipedia.min.css
p36
sg6
(lp37
I50539
aI50539
aI50539
asg8
I50539
sg9
(lp38
sg11
(lp39
(g13
F46.33822441101074
tp40
a(g15
F7.105445861816406
tp41
a(g17
F0.15541315078735352
tp42
asatp43
.(V3.14.0
p0
(lp1
(lp2
(dp3
Vfilename
p4
Vbench/bootstrap.css
p5
sVsizes
p6
(lp7
I121652
aI122030
aI122030
asVsize
p8
I145933
sVmessages
p9
(lp10
sVtimes
p11
(lp12
(Vcssmin
p13
F996.0211038589478
tp14
a(Vrcssmin
p15
F31.40735626220703
tp16
a(V_rcssmin
p17
F0.4219961166381836
tp18
asa(dp19
g4
Vbench/bootstrap.min.css
p20
sg6
(lp21
I121334
aI121407
aI121407
asg8
I121457
sg9
(lp22
sg11
(lp23
(g13
F909.5870971679688
tp24
a(g15
F14.27927017211914
tp25
a(g17
F0.28025388717651367
tp26
asa(dp27
g4
Vbench/wikipedia.css
p28
sg6
(lp29
I50539
aI50801
aI50801
asg8
I82896
sg9
(lp30
sg11
(lp31
(g13
F57.389283180236816
tp32
a(g15
F14.371824264526367
tp33
a(g17
F0.258481502532959
tp34
asa(dp35
g4
Vbench/wikipedia.min.css
p36
sg6
(lp37
I50539
aI50539
aI50539
asg8
I50539
sg9
(lp38
sg11
(lp39
(g13
F46.62775993347168
tp40
a(g15
F7.183337211608887
tp41
a(g17
F0.1552271842956543
tp42
asatp43
.(V3.6.15
p0
(lp1
(lp2
(dp3
Vfilename
p4
Vbench/bootstrap.css
p5
sVsizes
p6
(lp7
L121652L
aL122030L
aL122030L
asVsize
p8
L145933L
sVmessages
p9
(lp10
sVtimes
p11
(lp12
(Vcssmin
p13
F1104.0767669677734
tp14
a(Vrcssmin
p15
F32.14082717895508
tp16
a(V_rcssmin
p17
F0.4380607604980469
tp18
asa(dp19
g4
Vbench/bootstrap.min.css
p20
sg6
(lp21
L121334L
aL121407L
aL121407L
asg8
L121457L
sg9
(lp22
sg11
(lp23
(g13
F989.8335695266724
tp24
a(g15
F15.316200256347656
tp25
a(g17
F0.29083251953125
tp26
asa(dp27
g4
Vbench/wikipedia.css
p28
sg6
(lp29
L50539L
aL50801L
aL50801L
asg8
L82896L
sg9
(lp30
sg11
(lp31
(g13
F67.84255504608154
tp32
a(g15
F14.888358116149902
tp33
a(g17
F0.2675509452819824
tp34
asa(dp35
g4
Vbench/wikipedia.min.css
p36
sg6
(lp37
L50539L
aL50539L
aL50539L
asg8
L50539L
sg9
(lp38
sg11
(lp39
(g13
F53.23128700256348
tp40
a(g15
F7.523655891418457
tp41
a(g17
F0.16457796096801758
tp42
asatp43
.(V3.7.13
p0
(lp1
(lp2
(dp3
Vfilename
p4
Vbench/bootstrap.css
p5
sVsizes
p6
(lp7
I121652
aI122030
aI122030
asVsize
p8
I145933
sVmessages
p9
(lp10
sVtimes
p11
(lp12
(Vcssmin
p13
F1157.6141357421875
tp14
a(Vrcssmin
p15
F30.463552474975586
tp16
a(V_rcssmin
p17
F0.4226851463317871
tp18
asa(dp19
g4
Vbench/bootstrap.min.css
p20
sg6
(lp21
I121334
aI121407
aI121407
asg8
I121457
sg9
(lp22
sg11
(lp23
(g13
F1039.6580219268799
tp24
a(g15
F14.167451858520508
tp25
a(g17
F0.26717424392700195
tp26
asa(dp27
g4
Vbench/wikipedia.css
p28
sg6
(lp29
I50539
aI50801
aI50801
asg8
I82896
sg9
(lp30
sg11
(lp31
(g13
F67.51384735107422
tp32
a(g15
F13.611793518066406
tp33
a(g17
F0.25618791580200195
tp34
asa(dp35
g4
Vbench/wikipedia.min.css
p36
sg6
(lp37
I50539
aI50539
aI50539
asg8
I50539
sg9
(lp38
sg11
(lp39
(g13
F53.614139556884766
tp40
a(g15
F7.309365272521973
tp41
a(g17
F0.18304109573364258
tp42
asatp43
.(V3.8.20
p0
(lp1
(lp2
(dp3
Vfilename
p4
Vbench/bootstrap.css
p5
sVsizes
p6
(lp7
I121652
aI122030
aI122030
asVsize
p8
I145933
sVmessages
p9
(lp10
sVtimes
p11
(lp12
(Vcssmin
p13
F1104.85360622406
tp14
a(Vrcssmin
p15
F30.124354362487793
tp16
a(V_rcssmin
p17
F0.4526400566101074
tp18
asa(dp19
g4
Vbench/bootstrap.min.css
p20
sg6
(lp21
I121334
aI121407
aI121407
asg8
I121457
sg9
(lp22
sg11
(lp23
(g13
F994.2981004714966
tp24
a(g15
F13.760566711425781
tp25
a(g17
F0.2715182304382324
tp26
asa(dp27
g4
Vbench/wikipedia.css
p28
sg6
(lp29
I50539
aI50801
aI50801
asg8
I82896
sg9
(lp30
sg11
(lp31
(g13
F64.98758792877197
tp32
a(g15
F13.517332077026367
tp33
a(g17
F0.25841712951660156
tp34
asa(dp35
g4
Vbench/wikipedia.min.css
p36
sg6
(lp37
I50539
aI50539
aI50539
asg8
I50539
sg9
(lp38
sg11
(lp39
(g13
F51.76112651824951
tp40
a(g15
F6.858539581298828
tp41
a(g17
F0.15552043914794922
tp42
asatp43
.(V3.9.23
p0
(lp1
(lp2
(dp3
Vfilename
p4
Vbench/bootstrap.css
p5
sVsizes
p6
(lp7
I121652
aI122030
aI122030
asVsize
p8
I145933
sVmessages
p9
(lp10
sVtimes
p11
(lp12
(Vcssmin
p13
F1104.4741868972778
tp14
a(Vrcssmin
p15
F29.650449752807617
tp16
a(V_rcssmin
p17
F0.4591560363769531
tp18
asa(dp19
g4
Vbench/bootstrap.min.css
p20
sg6
(lp21
I121334
aI121407
aI121407
asg8
I121457
sg9
(lp22
sg11
(lp23
(g13
F994.0892696380615
tp24
a(g15
F14.49575424194336
tp25
a(g17
F0.30913352966308594
tp26
asa(dp27
g4
Vbench/wikipedia.css
p28
sg6
(lp29
I50539
aI50801
aI50801
asg8
I82896
sg9
(lp30
sg11
(lp31
(g13
F64.7273302078247
tp32
a(g15
F13.174653053283691
tp33
a(g17
F0.271146297454834
tp34
asa(dp35
g4
Vbench/wikipedia.min.css
p36
sg6
(lp37
I50539
aI50539
aI50539
asg8
I50539
sg9
(lp38
sg11
(lp39
(g13
F51.24990940093994
tp40
a(g15
F6.821942329406738
tp41
a(g17
F0.16824007034301758
tp42
asatp43
.