(S'2.7.18'
p0
(lp1
(lp2
(dp3
S'filename'
p4
S'bench/apiviewer.js'
p5
sS'sizes'
p6
(lp7
I974326
aI974329
aI974326
aI974326
asS'size'
p8
I976057
sS'times'
p9
(lp10
(S'simple_port'
p11
F1239.529299736023
tp12
a(S'jsmin_2_0_9'
p13
F1136.8355989456177
tp14
a(S'rjsmin'
p15
F28.636717796325684
tp16
a(S'_rjsmin'
p17
F1.749587059020996
tp18
asS'messages'
p19
(lp20
sa(dp21
g4
S'bench/bootstrap.js'
p22
sg6
(lp23
I27005
aI27030
aI27006
aI27006
asg8
I50212
sg9
(lp24
(g11
F50.12350082397461
tp25
a(g13
F21.57108783721924
tp26
a(g15
F7.493495941162109
tp27
a(g17
F0.12319087982177734
tp28
asg19
(lp29
sa(dp30
g4
S'bench/DateTimeShortcuts.js'
p31
sg6
(lp32
I10488
aI10517
aI10489
aI10489
asg8
I18754
sg9
(lp33
(g11
F18.668794631958008
tp34
a(g13
F8.122086524963379
tp35
a(g15
F1.9642114639282227
tp36
a(g17
F0.03495192527770996
tp37
asg19
(lp38
sa(dp39
g4
S'bench/jquery-1.7.1.js'
p40
sg6
(lp41
I139170
aI140054
aI139170
aI139170
asg8
I248235
sg9
(lp42
(g11
F260.3023052215576
tp43
a(g13
F134.41648483276367
tp44
a(g15
F49.72109794616699
tp45
a(g17
F0.7855415344238281
tp46
asg19
(lp47
sa(dp48
g4
S'bench/knockout-2.0.0.js'
p49
sg6
(lp50
I39533
aI39537
aI39535
aI39535
asg8
I39817
sg9
(lp51
(g11
F49.71599578857422
tp52
a(g13
F24.073195457458496
tp53
a(g15
F1.5147924423217773
tp54
a(g17
F0.07400989532470703
tp55
asg19
(lp56
sa(dp57
g4
S'bench/markermanager.js'
p58
sg6
(lp59
I11853
aI11871
aI11853
aI11853
asg8
I29300
sg9
(lp60
(g11
F24.98500347137451
tp61
a(g13
F10.886287689208984
tp62
a(g15
F3.1265974044799805
tp63
a(g17
F0.05452322959899902
tp64
asg19
(lp65
satp66
.