(V3.8.20
p0
(lp1
(lp2
(dp3
Vfilename
p4
Vbench/apiviewer.js
p5
sVsizes
p6
(lp7
I974318
aI974321
aI974318
aI974318
asVsize
p8
I976049
sVmessages
p9
(lp10
sVtimes
p11
(lp12
(Vsimple_port
p13
F1072.5261926651
tp14
a(Vjsmin_2_0_9
p15
F1002.7244567871094
tp16
a(Vrjsmin
p17
F31.580615043640137
tp18
a(V_rjsmin
p19
F3.2941341400146484
tp20
asa(dp21
g4
Vbench/bootstrap.js
p22
sg6
(lp23
I27005
aI27030
aI27006
aI27006
asg8
I50212
sg9
(lp24
sg11
(lp25
(g13
F44.86851692199707
tp26
a(g15
F18.30449104309082
tp27
a(g17
F7.739400863647461
tp28
a(g19
F0.13336896896362305
tp29
asa(dp30
g4
Vbench/DateTimeShortcuts.js
p31
sg6
(lp32
I10488
aI10517
aI10489
aI10489
asg8
I18754
sg9
(lp33
sg11
(lp34
(g13
F16.937685012817383
tp35
a(g15
F6.880903244018555
tp36
a(g17
F2.5562524795532227
tp37
a(g19
F0.03502631187438965
tp38
asa(dp39
g4
Vbench/jquery-1.7.1.js
p40
sg6
(lp41
I139170
aI140054
aI139170
aI139170
asg8
I248235
sg9
(lp42
sg11
(lp43
(g13
F230.7467222213745
tp44
a(g15
F110.08422374725342
tp45
a(g17
F48.77448081970215
tp46
a(g19
F0.7974553108215332
tp47
asa(dp48
g4
Vbench/knockout-2.0.0.js
p49
sg6
(lp50
I39533
aI39537
aI39535
aI39535
asg8
I39817
sg9
(lp51
sg11
(lp52
(g13
F42.92469024658203
tp53
a(g15
F19.541144371032715
tp54
a(g17
F1.487278938293457
tp55
a(g19
F0.07193899154663086
tp56
asa(dp57
g4
Vbench/markermanager.js
p58
sg6
(lp59
I11853
aI11871
aI11853
aI11853
asg8
I29300
sg9
(lp60
sg11
(lp61
(g13
F22.109627723693848
tp62
a(g15
F9.15844440460205
tp63
a(g17
F3.118014335632324
tp64
a(g19
F0.05388641357421875
tp65
asatp66
.