(V3.12.11
p0
(lp1
(lp2
(dp3
Vfilename
p4
Vbench/apiviewer.js
p5
sVsizes
p6
(lp7
I974318
aI974321
aI974318
aI974318
asVsize
p8
I976049
sVmessages
p9
(lp10
sVtimes
p11
(lp12
(Vsimple_port
p13
F349.4196891784668
tp14
a(Vjsmin_2_0_9
p15
F791.0966634750366
tp16
a(Vrjsmin
p17
F27.539491653442383
tp18
a(V_rjsmin
p19
F3.079080581665039
tp20
asa(dp21
g4
Vbench/bootstrap.js
p22
sg6
(lp23
I27005
aI27030
aI27006
aI27006
asg8
I50212
sg9
(lp24
sg11
(lp25
(g13
F16.918015480041504
tp26
a(g15
F10.772132873535156
tp27
a(g17
F6.094956398010254
tp28
a(g19
F0.12616872787475586
tp29
asa(dp30
g4
Vbench/DateTimeShortcuts.js
p31
sg6
(lp32
I10488
aI10517
aI10489
aI10489
asg8
I18754
sg9
(lp33
sg11
(lp34
(g13
F6.636238098144531
tp35
a(g15
F4.163908958435059
tp36
a(g17
F1.6298532485961914
tp37
a(g19
F0.03737902641296387
tp38
asa(dp39
g4
Vbench/jquery-1.7.1.js
p40
sg6
(lp41
I139170
aI140054
aI139170
aI139170
asg8
I248235
sg9
(lp42
sg11
(lp43
(g13
F86.834716796875
tp44
a(g15
F72.6177453994751
tp45
a(g17
F40.3822660446167
tp46
a(g19
F0.8428812026977539
tp47
asa(dp48
g4
Vbench/knockout-2.0.0.js
p49
sg6
(lp50
I39533
aI39537
aI39535
aI39535
asg8
I39817
sg9
(lp51
sg11
(lp52
(g13
F14.452600479125977
tp53
a(g15
F12.125492095947266
tp54
a(g17
F1.3217449188232422
tp55
a(g19
F0.07582736015319824
tp56
asa(dp57
g4
Vbench/markermanager.js
p58
sg6
(lp59
I11853
aI11871
aI11853
aI11853
asg8
I29300
sg9
(lp60
sg11
(lp61
(g13
F8.117151260375977
tp62
a(g15
F5.724024772644043
tp63
a(g17
F2.588057518005371
tp64
a(g19
F0.05533480644226074
tp65
asatp66
.