(V3.9.23
p0
(lp1
(lp2
(dp3
Vfilename
p4
Vbench/apiviewer.js
p5
sVsizes
p6
(lp7
I974318
aI974321
aI974318
aI974318
asVsize
p8
I976049
sVmessages
p9
(lp10
sVtimes
p11
(lp12
(Vsimple_port
p13
F1092.4482583999634
tp14
a(Vjsmin_2_0_9
p15
F969.2462921142578
tp16
a(Vrjsmin
p17
F30.373549461364746
tp18
a(V_rjsmin
p19
F2.8186559677124023
tp20
asa(dp21
g4
Vbench/bootstrap.js
p22
sg6
(lp23
I27005
aI27030
aI27006
aI27006
asg8
I50212
sg9
(lp24
sg11
(lp25
(g13
F44.267845153808594
tp26
a(g15
F17.229771614074707
tp27
a(g17
F7.01603889465332
tp28
a(g19
F0.1119375228881836
tp29
asa(dp30
g4
Vbench/DateTimeShortcuts.js
p31
sg6
(lp32
I10488
aI10517
aI10489
aI10489
asg8
I18754
sg9
(lp33
sg11
(lp34
(g13
F16.296076774597168
tp35
a(g15
F6.485652923583984
tp36
a(g17
F2.556633949279785
tp37
a(g19
F0.03135085105895996
tp38
asa(dp39
g4
Vbench/jquery-1.7.1.js
p40
sg6
(lp41
I139170
aI140054
aI139170
aI139170
asg8
I248235
sg9
(lp42
sg11
(lp43
(g13
F228.31406593322754
tp44
a(g15
F106.76813125610352
tp45
a(g17
F48.194050788879395
tp46
a(g19
F0.751953125
tp47
asa(dp48
g4
Vbench/knockout-2.0.0.js
p49
sg6
(lp50
I39533
aI39537
aI39535
aI39535
asg8
I39817
sg9
(lp51
sg11
(lp52
(g13
F43.378520011901855
tp53
a(g15
F18.44496726989746
tp54
a(g17
F1.4443635940551758
tp55
a(g19
F0.05601859092712402
tp56
asa(dp57
g4
Vbench/markermanager.js
p58
sg6
(lp59
I11853
aI11871
aI11853
aI11853
asg8
I29300
sg9
(lp60
sg11
(lp61
(g13
F21.579742431640625
tp62
a(g15
F8.772873878479004
tp63
a(g17
F3.2511234283447266
tp64
a(g19
F0.04730510711669922
tp65
asatp66
.