(V3.7.13
p0
(lp1
(lp2
(dp3
Vfilename
p4
Vbench/apiviewer.js
p5
sVsizes
p6
(lp7
I974318
aI974321
aI974318
aI974318
asVsize
p8
I976049
sVmessages
p9
(lp10
sVtimes
p11
(lp12
(Vsimple_port
p13
F1212.562608718872
tp14
a(Vjsmin_2_0_9
p15
F1089.861249923706
tp16
a(Vrjsmin
p17
F31.074953079223633
tp18
a(V_rjsmin
p19
F3.0779361724853516
tp20
asa(dp21
g4
Vbench/bootstrap.js
p22
sg6
(lp23
I27005
aI27030
aI27006
aI27006
asg8
I50212
sg9
(lp24
sg11
(lp25
(g13
F50.4274845123291
tp26
a(g15
F21.69210910797119
tp27
a(g17
F8.069181442260742
tp28
a(g19
F0.13864517211914062
tp29
asa(dp30
g4
Vbench/DateTimeShortcuts.js
p31
sg6
(lp32
I10488
aI10517
aI10489
aI10489
asg8
I18754
sg9
(lp33
sg11
(lp34
(g13
F18.838930130004883
tp35
a(g15
F8.05509090423584
tp36
a(g17
F2.038145065307617
tp37
a(g19
F0.03474068641662598
tp38
asa(dp39
g4
Vbench/jquery-1.7.1.js
p40
sg6
(lp41
I139170
aI140054
aI139170
aI139170
asg8
I248235
sg9
(lp42
sg11
(lp43
(g13
F264.04829025268555
tp44
a(g15
F128.78074645996094
tp45
a(g17
F51.746439933776855
tp46
a(g19
F0.7733607292175293
tp47
asa(dp48
g4
Vbench/knockout-2.0.0.js
p49
sg6
(lp50
I39533
aI39537
aI39535
aI39535
asg8
I39817
sg9
(lp51
sg11
(lp52
(g13
F48.38733673095703
tp53
a(g15
F22.777199745178223
tp54
a(g17
F1.544046401977539
tp55
a(g19
F0.07944512367248535
tp56
asa(dp57
g4
Vbench/markermanager.js
p58
sg6
(lp59
I11853
aI11871
aI11853
aI11853
asg8
I29300
sg9
(lp60
sg11
(lp61
(g13
F25.00452995300293
tp62
a(g15
F11.136841773986816
tp63
a(g17
F3.1537771224975586
tp64
a(g19
F0.05381298065185547
tp65
asatp66
.