(V3.6.15
p0
(lp1
(lp2
(dp3
Vfilename
p4
Vbench/apiviewer.js
p5
sVsizes
p6
(lp7
L974318L
aL974321L
aL974318L
aL974318L
asVsize
p8
L976049L
sVmessages
p9
(lp10
sVtimes
p11
(lp12
(Vsimple_port
p13
F1461.1942052841187
tp14
a(Vjsmin_2_0_9
p15
F1141.8784856796265
tp16
a(Vrjsmin
p17
F34.12814140319824
tp18
a(V_rjsmin
p19
F2.440190315246582
tp20
asa(dp21
g4
Vbench/bootstrap.js
p22
sg6
(lp23
L27005L
aL27030L
aL27006L
aL27006L
asg8
L50212L
sg9
(lp24
sg11
(lp25
(g13
F60.634565353393555
tp26
a(g15
F23.577070236206055
tp27
a(g17
F8.782553672790527
tp28
a(g19
F0.11978387832641602
tp29
asa(dp30
g4
Vbench/DateTimeShortcuts.js
p31
sg6
(lp32
L10488L
aL10517L
aL10489L
aL10489L
asg8
L18754L
sg9
(lp33
sg11
(lp34
(g13
F22.568821907043457
tp35
a(g15
F8.641505241394043
tp36
a(g17
F2.1828413009643555
tp37
a(g19
F0.029582500457763672
tp38
asa(dp39
g4
Vbench/jquery-1.7.1.js
p40
sg6
(lp41
L139170L
aL140054L
aL139170L
aL139170L
asg8
L248235L
sg9
(lp42
sg11
(lp43
(g13
F313.65134716033936
tp44
a(g15
F138.22219371795654
tp45
a(g17
F54.807114601135254
tp46
a(g19
F0.7208013534545898
tp47
asa(dp48
g4
Vbench/knockout-2.0.0.js
p49
sg6
(lp50
L39533L
aL39537L
aL39535L
aL39535L
asg8
L39817L
sg9
(lp51
sg11
(lp52
(g13
F58.355140686035156
tp53
a(g15
F24.643707275390625
tp54
a(g17
F1.6755342483520508
tp55
a(g19
F0.05575752258300781
tp56
asa(dp57
g4
Vbench/markermanager.js
p58
sg6
(lp59
L11853L
aL11871L
aL11853L
aL11853L
asg8
L29300L
sg9
(lp60
sg11
(lp61
(g13
F29.540586471557617
tp62
a(g15
F11.685347557067871
tp63
a(g17
F3.3798694610595703
tp64
a(g19
F0.04671835899353027
tp65
asatp66
.