(S'2.7.18'
p0
(lp1
(lp2
(dp3
S'filename'
p4
S'bench/apiviewer.js'
p5
sS'sizes'
p6
(lp7
I974326
aI974329
aI974326
aI974326
asS'size'
p8
I976057
sS'times'
p9
(lp10
(S'simple_port'
p11
F1239.529299736023
tp12
a(S'jsmin_2_0_9'
p13
F1136.8355989456177
tp14
a(S'rjsmin'
p15
F28.636717796325684
tp16
a(S'_rjsmin'
p17
F1.749587059020996
tp18
asS'messages'
p19
(lp20
sa(dp21
g4
S'bench/bootstrap.js'
p22
sg6
(lp23
I27005
aI27030
aI27006
aI27006
asg8
I50212
sg9
(lp24
(g11
F50.12350082397461
tp25
a(g13
F21.57108783721924
tp26
a(g15
F7.493495941162109
tp27
a(g17
F0.12319087982177734
tp28
asg19
(lp29
sa(dp30
g4
S'bench/DateTimeShortcuts.js'
p31
sg6
(lp32
I10488
aI10517
aI10489
aI10489
asg8
I18754
sg9
(lp33
(g11
F18.668794631958008
tp34
a(g13
F8.122086524963379
tp35
a(g15
F1.9642114639282227
tp36
a(g17
F0.03495192527770996
tp37
asg19
(lp38
sa(dp39
g4
S'bench/jquery-1.7.1.js'
p40
sg6
(lp41
I139170
aI140054
aI139170
aI139170
asg8
I248235
sg9
(lp42
(g11
F260.3023052215576
tp43
a(g13
F134.41648483276367
tp44
a(g15
F49.72109794616699
tp45
a(g17
F0.7855415344238281
tp46
asg19
(lp47
sa(dp48
g4
S'bench/knockout-2.0.0.js'
p49
sg6
(lp50
I39533
aI39537
aI39535
aI39535
asg8
I39817
sg9
(lp51
(g11
F49.71599578857422
tp52
a(g13
F24.073195457458496
tp53
a(g15
F1.5147924423217773
tp54
a(g17
F0.07400989532470703
tp55
asg19
(lp56
sa(dp57
g4
S'bench/markermanager.js'
p58
sg6
(lp59
I11853
aI11871
aI11853
aI11853
asg8
I29300
sg9
(lp60
(g11
F24.98500347137451
tp61
a(g13
F10.886287689208984
tp62
a(g15
F3.1265974044799805
tp63
a(g17
F0.05452322959899902
tp64
asg19
(lp65
satp66
.(V3.10.18
p0
(lp1
(lp2
(dp3
Vfilename
p4
Vbench/apiviewer.js
p5
sVsizes
p6
(lp7
I974318
aI974321
aI974318
aI974318
asVsize
p8
I976049
sVmessages
p9
(lp10
sVtimes
p11
(lp12
(Vsimple_port
p13
F999.1076707839966
tp14
a(Vjsmin_2_0_9
p15
F936.6955041885376
tp16
a(Vrjsmin
p17
F30.84723949432373
tp18
a(V_rjsmin
p19
F2.8650760650634766
tp20
asa(dp21
g4
Vbench/bootstrap.js
p22
sg6
(lp23
I27005
aI27030
aI27006
aI27006
asg8
I50212
sg9
(lp24
sg11
(lp25
(g13
F42.2511100769043
tp26
a(g15
F16.131114959716797
tp27
a(g17
F7.200813293457031
tp28
a(g19
F0.11194467544555664
tp29
asa(dp30
g4
Vbench/DateTimeShortcuts.js
p31
sg6
(lp32
I10488
aI10517
aI10489
aI10489
asg8
I18754
sg9
(lp33
sg11
(lp34
(g13
F15.672874450683594
tp35
a(g15
F6.16145133972168
tp36
a(g17
F1.898813247680664
tp37
a(g19
F0.03218531608581543
tp38
asa(dp39
g4
Vbench/jquery-1.7.1.js
p40
sg6
(lp41
I139170
aI140054
aI139170
aI139170
asg8
I248235
sg9
(lp42
sg11
(lp43
(g13
F221.41315937042236
tp44
a(g15
F101.6676664352417
tp45
a(g17
F47.53415584564209
tp46
a(g19
F0.7539796829223633
tp47
asa(dp48
g4
Vbench/knockout-2.0.0.js
p49
sg6
(lp50
I39533
aI39537
aI39535
aI39535
asg8
I39817
sg9
(lp51
sg11
(lp52
(g13
F39.98870849609375
tp53
a(g15
F17.33555793762207
tp54
a(g17
F1.4723539352416992
tp55
a(g19
F0.05874204635620117
tp56
asa(dp57
g4
Vbench/markermanager.js
p58
sg6
(lp59
I11853
aI11871
aI11853
aI11853
asg8
I29300
sg9
(lp60
sg11
(lp61
(g13
F20.894932746887207
tp62
a(g15
F8.310437202453613
tp63
a(g17
F3.0329465866088867
tp64
a(g19
F0.04701590538024902
tp65
asatp66
.(V3.11.13
p0
(lp1
(lp2
(dp3
Vfilename
p4
Vbench/apiviewer.js
p5
sVsizes
p6
(lp7
I974318
aI974321
aI974318
aI974318
asVsize
p8
I976049
sVmessages
p9
(lp10
sVtimes
p11
(lp12
(Vsimple_port
p13
F467.72162914276123
tp14
a(Vjsmin_2_0_9
p15
F804.4532060623169
tp16
a(Vrjsmin
p17
F27.01122760772705
tp18
a(V_rjsmin
p19
F2.8580665588378906
tp20
asa(dp21
g4
Vbench/bootstrap.js
p22
sg6
(lp23
I27005
aI27030
aI27006
aI27006
asg8
I50212
sg9
(lp24
sg11
(lp25
(g13
F18.399477005004883
tp26
a(g15
F11.184024810791016
tp27
a(g17
F6.799197196960449
tp28
a(g19
F0.1116490364074707
tp29
asa(dp30
g4
Vbench/DateTimeShortcuts.js
p31
sg6
(lp32
I10488
aI10517
aI10489
aI10489
asg8
I18754
sg9
(lp33
sg11
(lp34
(g13
F7.3386430740356445
tp35
a(g15
F4.535889625549316
tp36
a(g17
F1.6709327697753906
tp37
a(g19
F0.03333640098571777
tp38
asa(dp39
g4
Vbench/jquery-1.7.1.js
p40
sg6
(lp41
I139170
aI140054
aI139170
aI139170
asg8
I248235
sg9
(lp42
sg11
(lp43
(g13
F96.60801887512207
tp44
a(g15
F75.03283023834229
tp45
a(g17
F40.64488410949707
tp46
a(g19
F0.7789921760559082
tp47
asa(dp48
g4
Vbench/knockout-2.0.0.js
p49
sg6
(lp50
I39533
aI39537
aI39535
aI39535
asg8
I39817
sg9
(lp51
sg11
(lp52
(g13
F16.59696102142334
tp53
a(g15
F11.720061302185059
tp54
a(g17
F1.285099983215332
tp55
a(g19
F0.058893442153930664
tp56
asa(dp57
g4
Vbench/markermanager.js
p58
sg6
(lp59
I11853
aI11871
aI11853
aI11853
asg8
I29300
sg9
(lp60
sg11
(lp61
(g13
F8.893418312072754
tp62
a(g15
F5.628728866577148
tp63
a(g17
F2.746129035949707
tp64
a(g19
F0.04920625686645508
tp65
asatp66
.(V3.12.11
p0
(lp1
(lp2
(dp3
Vfilename
p4
Vbench/apiviewer.js
p5
sVsizes
p6
(lp7
I974318
aI974321
aI974318
aI974318
asVsize
p8
I976049
sVmessages
p9
(lp10
sVtimes
p11
(lp12
(Vsimple_port
p13
F349.4196891784668
tp14
a(Vjsmin_2_0_9
p15
F791.0966634750366
tp16
a(Vrjsmin
p17
F27.539491653442383
tp18
a(V_rjsmin
p19
F3.079080581665039
tp20
asa(dp21
g4
Vbench/bootstrap.js
p22
sg6
(lp23
I27005
aI27030
aI27006
aI27006
asg8
I50212
sg9
(lp24
sg11
(lp25
(g13
F16.918015480041504
tp26
a(g15
F10.772132873535156
tp27
a(g17
F6.094956398010254
tp28
a(g19
F0.12616872787475586
tp29
asa(dp30
g4
Vbench/DateTimeShortcuts.js
p31
sg6
(lp32
I10488
aI10517
aI10489
aI10489
asg8
I18754
sg9
(lp33
sg11
(lp34
(g13
F6.636238098144531
tp35
a(g15
F4.163908958435059
tp36
a(g17
F1.6298532485961914
tp37
a(g19
F0.03737902641296387
tp38
asa(dp39
g4
Vbench/jquery-1.7.1.js
p40
sg6
(lp41
I139170
aI140054
aI139170
aI139170
asg8
I248235
sg9
(lp42
sg11
(lp43
(g13
F86.834716796875
tp44
a(g15
F72.6177453994751
tp45
a(g17
F40.3822660446167
tp46
a(g19
F0.8428812026977539
tp47
asa(dp48
g4
Vbench/knockout-2.0.0.js
p49
sg6
(lp50
I39533
aI39537
aI39535
aI39535
asg8
I39817
sg9
(lp51
sg11
(lp52
(g13
F14.452600479125977
tp53
a(g15
F12.125492095947266
tp54
a(g17
F1.3217449188232422
tp55
a(g19
F0.07582736015319824
tp56
asa(dp57
g4
Vbench/markermanager.js
p58
sg6
(lp59
I11853
aI11871
aI11853
aI11853
asg8
I29300
sg9
(lp60
sg11
(lp61
(g13
F8.117151260375977
tp62
a(g15
F5.724024772644043
tp63
a(g17
F2.588057518005371
tp64
a(g19
F0.05533480644226074
tp65
asatp66
.(V3.13.5
p0
(lp1
(lp2
(dp3
Vfilename
p4
Vbench/apiviewer.js
p5
sVsizes
p6
(lp7
I974318
aI974321
aI974318
aI974318
asVsize
p8
I976049
sVmessages
p9
(lp10
sVtimes
p11
(lp12
(Vsimple_port
p13
F387.62075901031494
tp14
a(Vjsmin_2_0_9
p15
F837.3427152633667
tp16
a(Vrjsmin
p17
F26.376986503601074
tp18
a(V_rjsmin
p19
F3.1113147735595703
tp20
asa(dp21
g4
Vbench/bootstrap.js
p22
sg6
(lp23
I27005
aI27030
aI27006
aI27006
asg8
I50212
sg9
(lp24
sg11
(lp25
(g13
F19.260144233703613
tp26
a(g15
F13.1638765335083
tp27
a(g17
F6.786203384399414
tp28
a(g19
F0.14395952224731445
tp29
asa(dp30
g4
Vbench/DateTimeShortcuts.js
p31
sg6
(lp32
I10488
aI10517
aI10489
aI10489
asg8
I18754
sg9
(lp33
sg11
(lp34
(g13
F7.420849800109863
tp35
a(g15
F5.270099639892578
tp36
a(g17
F2.3255348205566406
tp37
a(g19
F0.0412602424621582
tp38
asa(dp39
g4
Vbench/jquery-1.7.1.js
p40
sg6
(lp41
I139170
aI140054
aI139170
aI139170
asg8
I248235
sg9
(lp42
sg11
(lp43
(g13
F97.23868370056152
tp44
a(g15
F80.16386032104492
tp45
a(g17
F41.290831565856934
tp46
a(g19
F0.8442854881286621
tp47
asa(dp48
g4
Vbench/knockout-2.0.0.js
p49
sg6
(lp50
I39533
aI39537
aI39535
aI39535
asg8
I39817
sg9
(lp51
sg11
(lp52
(g13
F16.63033962249756
tp53
a(g15
F13.504576683044434
tp54
a(g17
F1.6093969345092773
tp55
a(g19
F0.07956051826477051
tp56
asa(dp57
g4
Vbench/markermanager.js
p58
sg6
(lp59
I11853
aI11871
aI11853
aI11853
asg8
I29300
sg9
(lp60
sg11
(lp61
(g13
F9.751510620117188
tp62
a(g15
F6.318140029907227
tp63
a(g17
F2.6212453842163086
tp64
a(g19
F0.05550646781921387
tp65
asatp66
.(V3.14.0
p0
(lp1
(lp2
(dp3
Vfilename
p4
Vbench/apiviewer.js
p5
sVsizes
p6
(lp7
I974318
aI974321
aI974318
aI974318
asVsize
p8
I976049
sVmessages
p9
(lp10
sVtimes
p11
(lp12
(Vsimple_port
p13
F394.2904233932495
tp14
a(Vjsmin_2_0_9
p15
F817.3566341400146
tp16
a(Vrjsmin
p17
F26.573681831359863
tp18
a(V_rjsmin
p19
F2.665281295776367
tp20
asa(dp21
g4
Vbench/bootstrap.js
p22
sg6
(lp23
I27005
aI27030
aI27006
aI27006
asg8
I50212
sg9
(lp24
sg11
(lp25
(g13
F18.068838119506836
tp26
a(g15
F12.061214447021484
tp27
a(g17
F6.095099449157715
tp28
a(g19
F0.11142730712890625
tp29
asa(dp30
g4
Vbench/DateTimeShortcuts.js
p31
sg6
(lp32
I10488
aI10517
aI10489
aI10489
asg8
I18754
sg9
(lp33
sg11
(lp34
(g13
F6.708717346191406
tp35
a(g15
F4.616999626159668
tp36
a(g17
F1.6663312911987305
tp37
a(g19
F0.032613277435302734
tp38
asa(dp39
g4
Vbench/jquery-1.7.1.js
p40
sg6
(lp41
I139170
aI140054
aI139170
aI139170
asg8
I248235
sg9
(lp42
sg11
(lp43
(g13
F96.35477066040039
tp44
a(g15
F79.81224060058594
tp45
a(g17
F41.281843185424805
tp46
a(g19
F0.7498836517333984
tp47
asa(dp48
g4
Vbench/knockout-2.0.0.js
p49
sg6
(lp50
I39533
aI39537
aI39535
aI39535
asg8
I39817
sg9
(lp51
sg11
(lp52
(g13
F15.860366821289062
tp53
a(g15
F12.688016891479492
tp54
a(g17
F1.3734817504882812
tp55
a(g19
F0.06113314628601074
tp56
asa(dp57
g4
Vbench/markermanager.js
p58
sg6
(lp59
I11853
aI11871
aI11853
aI11853
asg8
I29300
sg9
(lp60
sg11
(lp61
(g13
F8.930087089538574
tp62
a(g15
F6.219768524169922
tp63
a(g17
F2.5783300399780273
tp64
a(g19
F0.04853248596191406
tp65
asatp66
.(V3.6.15
p0
(lp1
(lp2
(dp3
Vfilename
p4
Vbench/apiviewer.js
p5
sVsizes
p6
(lp7
L974318L
aL974321L
aL974318L
aL974318L
asVsize
p8
L976049L
sVmessages
p9
(lp10
sVtimes
p11
(lp12
(Vsimple_port
p13
F1461.1942052841187
tp14
a(Vjsmin_2_0_9
p15
F1141.8784856796265
tp16
a(Vrjsmin
p17
F34.12814140319824
tp18
a(V_rjsmin
p19
F2.440190315246582
tp20
asa(dp21
g4
Vbench/bootstrap.js
p22
sg6
(lp23
L27005L
aL27030L
aL27006L
aL27006L
asg8
L50212L
sg9
(lp24
sg11
(lp25
(g13
F60.634565353393555
tp26
a(g15
F23.577070236206055
tp27
a(g17
F8.782553672790527
tp28
a(g19
F0.11978387832641602
tp29
asa(dp30
g4
Vbench/DateTimeShortcuts.js
p31
sg6
(lp32
L10488L
aL10517L
aL10489L
aL10489L
asg8
L18754L
sg9
(lp33
sg11
(lp34
(g13
F22.568821907043457
tp35
a(g15
F8.641505241394043
tp36
a(g17
F2.1828413009643555
tp37
a(g19
F0.029582500457763672
tp38
asa(dp39
g4
Vbench/jquery-1.7.1.js
p40
sg6
(lp41
L139170L
aL140054L
aL139170L
aL139170L
asg8
L248235L
sg9
(lp42
sg11
(lp43
(g13
F313.65134716033936
tp44
a(g15
F138.22219371795654
tp45
a(g17
F54.807114601135254
tp46
a(g19
F0.7208013534545898
tp47
asa(dp48
g4
Vbench/knockout-2.0.0.js
p49
sg6
(lp50
L39533L
aL39537L
aL39535L
aL39535L
asg8
L39817L
sg9
(lp51
sg11
(lp52
(g13
F58.355140686035156
tp53
a(g15
F24.643707275390625
tp54
a(g17
F1.6755342483520508
tp55
a(g19
F0.05575752258300781
tp56
asa(dp57
g4
Vbench/markermanager.js
p58
sg6
(lp59
L11853L
aL11871L
aL11853L
aL11853L
asg8
L29300L
sg9
(lp60
sg11
(lp61
(g13
F29.540586471557617
tp62
a(g15
F11.685347557067871
tp63
a(g17
F3.3798694610595703
tp64
a(g19
F0.04671835899353027
tp65
asatp66
.(V3.7.13
p0
(lp1
(lp2
(dp3
Vfilename
p4
Vbench/apiviewer.js
p5
sVsizes
p6
(lp7
I974318
aI974321
aI974318
aI974318
asVsize
p8
I976049
sVmessages
p9
(lp10
sVtimes
p11
(lp12
(Vsimple_port
p13
F1212.562608718872
tp14
a(Vjsmin_2_0_9
p15
F1089.861249923706
tp16
a(Vrjsmin
p17
F31.074953079223633
tp18
a(V_rjsmin
p19
F3.0779361724853516
tp20
asa(dp21
g4
Vbench/bootstrap.js
p22
sg6
(lp23
I27005
aI27030
aI27006
aI27006
asg8
I50212
sg9
(lp24
sg11
(lp25
(g13
F50.4274845123291
tp26
a(g15
F21.69210910797119
tp27
a(g17
F8.069181442260742
tp28
a(g19
F0.13864517211914062
tp29
asa(dp30
g4
Vbench/DateTimeShortcuts.js
p31
sg6
(lp32
I10488
aI10517
aI10489
aI10489
asg8
I18754
sg9
(lp33
sg11
(lp34
(g13
F18.838930130004883
tp35
a(g15
F8.05509090423584
tp36
a(g17
F2.038145065307617
tp37
a(g19
F0.03474068641662598
tp38
asa(dp39
g4
Vbench/jquery-1.7.1.js
p40
sg6
(lp41
I139170
aI140054
aI139170
aI139170
asg8
I248235
sg9
(lp42
sg11
(lp43
(g13
F264.04829025268555
tp44
a(g15
F128.78074645996094
tp45
a(g17
F51.746439933776855
tp46
a(g19
F0.7733607292175293
tp47
asa(dp48
g4
Vbench/knockout-2.0.0.js
p49
sg6
(lp50
I39533
aI39537
aI39535
aI39535
asg8
I39817
sg9
(lp51
sg11
(lp52
(g13
F48.38733673095703
tp53
a(g15
F22.777199745178223
tp54
a(g17
F1.544046401977539
tp55
a(g19
F0.07944512367248535
tp56
asa(dp57
g4
Vbench/markermanager.js
p58
sg6
(lp59
I11853
aI11871
aI11853
aI11853
asg8
I29300
sg9
(lp60
sg11
(lp61
(g13
F25.00452995300293
tp62
a(g15
F11.136841773986816
tp63
a(g17
F3.1537771224975586
tp64
a(g19
F0.05381298065185547
tp65
asatp66
.(V3.8.20
p0
(lp1
(lp2
(dp3
Vfilename
p4
Vbench/apiviewer.js
p5
sVsizes
p6
(lp7
I974318
aI974321
aI974318
aI974318
asVsize
p8
I976049
sVmessages
p9
(lp10
sVtimes
p11
(lp12
(Vsimple_port
p13
F1072.5261926651
tp14
a(Vjsmin_2_0_9
p15
F1002.7244567871094
tp16
a(Vrjsmin
p17
F31.580615043640137
tp18
a(V_rjsmin
p19
F3.2941341400146484
tp20
asa(dp21
g4
Vbench/bootstrap.js
p22
sg6
(lp23
I27005
aI27030
aI27006
aI27006
asg8
I50212
sg9
(lp24
sg11
(lp25
(g13
F44.86851692199707
tp26
a(g15
F18.30449104309082
tp27
a(g17
F7.739400863647461
tp28
a(g19
F0.13336896896362305
tp29
asa(dp30
g4
Vbench/DateTimeShortcuts.js
p31
sg6
(lp32
I10488
aI10517
aI10489
aI10489
asg8
I18754
sg9
(lp33
sg11
(lp34
(g13
F16.937685012817383
tp35
a(g15
F6.880903244018555
tp36
a(g17
F2.5562524795532227
tp37
a(g19
F0.03502631187438965
tp38
asa(dp39
g4
Vbench/jquery-1.7.1.js
p40
sg6
(lp41
I139170
aI140054
aI139170
aI139170
asg8
I248235
sg9
(lp42
sg11
(lp43
(g13
F230.7467222213745
tp44
a(g15
F110.08422374725342
tp45
a(g17
F48.77448081970215
tp46
a(g19
F0.7974553108215332
tp47
asa(dp48
g4
Vbench/knockout-2.0.0.js
p49
sg6
(lp50
I39533
aI39537
aI39535
aI39535
asg8
I39817
sg9
(lp51
sg11
(lp52
(g13
F42.92469024658203
tp53
a(g15
F19.541144371032715
tp54
a(g17
F1.487278938293457
tp55
a(g19
F0.07193899154663086
tp56
asa(dp57
g4
Vbench/markermanager.js
p58
sg6
(lp59
I11853
aI11871
aI11853
aI11853
asg8
I29300
sg9
(lp60
sg11
(lp61
(g13
F22.109627723693848
tp62
a(g15
F9.15844440460205
tp63
a(g17
F3.118014335632324
tp64
a(g19
F0.05388641357421875
tp65
asatp66
.(V3.9.23
p0
(lp1
(lp2
(dp3
Vfilename
p4
Vbench/apiviewer.js
p5
sVsizes
p6
(lp7
I974318
aI974321
aI974318
aI974318
asVsize
p8
I976049
sVmessages
p9
(lp10
sVtimes
p11
(lp12
(Vsimple_port
p13
F1092.4482583999634
tp14
a(Vjsmin_2_0_9
p15
F969.2462921142578
tp16
a(Vrjsmin
p17
F30.373549461364746
tp18
a(V_rjsmin
p19
F2.8186559677124023
tp20
asa(dp21
g4
Vbench/bootstrap.js
p22
sg6
(lp23
I27005
aI27030
aI27006
aI27006
asg8
I50212
sg9
(lp24
sg11
(lp25
(g13
F44.267845153808594
tp26
a(g15
F17.229771614074707
tp27
a(g17
F7.01603889465332
tp28
a(g19
F0.1119375228881836
tp29
asa(dp30
g4
Vbench/DateTimeShortcuts.js
p31
sg6
(lp32
I10488
aI10517
aI10489
aI10489
asg8
I18754
sg9
(lp33
sg11
(lp34
(g13
F16.296076774597168
tp35
a(g15
F6.485652923583984
tp36
a(g17
F2.556633949279785
tp37
a(g19
F0.03135085105895996
tp38
asa(dp39
g4
Vbench/jquery-1.7.1.js
p40
sg6
(lp41
I139170
aI140054
aI139170
aI139170
asg8
I248235
sg9
(lp42
sg11
(lp43
(g13
F228.31406593322754
tp44
a(g15
F106.76813125610352
tp45
a(g17
F48.194050788879395
tp46
a(g19
F0.751953125
tp47
asa(dp48
g4
Vbench/knockout-2.0.0.js
p49
sg6
(lp50
I39533
aI39537
aI39535
aI39535
asg8
I39817
sg9
(lp51
sg11
(lp52
(g13
F43.378520011901855
tp53
a(g15
F18.44496726989746
tp54
a(g17
F1.4443635940551758
tp55
a(g19
F0.05601859092712402
tp56
asa(dp57
g4
Vbench/markermanager.js
p58
sg6
(lp59
I11853
aI11871
aI11853
aI11853
asg8
I29300
sg9
(lp60
sg11
(lp61
(g13
F21.579742431640625
tp62
a(g15
F8.772873878479004
tp63
a(g17
F3.2511234283447266
tp64
a(g19
F0.04730510711669922
tp65
asatp66
.